; Function Attrs: mustprogress uwtable
define void @_ZN4YAML14EmitFromEvents13OnSequenceEndEv(ptr noundef nonnull align 8 captures(none) dereferenceable(96) %0) unnamed_addr #0 align 2 personality ptr @__gxx_personality_v0 {
  %2 = getelementptr inbounds nuw i8, ptr %0, i64 8
  %3 = load ptr, ptr %2, align 8, !tbaa !21
  %4 = tail call noundef nonnull align 8 dereferenceable(72) ptr @_ZN4YAML7Emitter13SetLocalValueENS_13EMITTER_MANIPE(ptr noundef nonnull align 8 dereferenceable(72) %3, i32 noundef 27)
  %5 = getelementptr inbounds nuw i8, ptr %0, i64 64
  %6 = load ptr, ptr %5, align 8, !tbaa !107
  %7 = getelementptr inbounds nuw i8, ptr %0, i64 72
  %8 = load ptr, ptr %7, align 8, !tbaa !109
  %.not.i.i = icmp eq ptr %6, %8
  br i1 %.not.i.i, label %11, label %9

9:                                                ; preds = %1
  %10 = getelementptr inbounds i8, ptr %6, i64 -4
  br label %_ZNSt5stackIN4YAML14EmitFromEvents5State5valueESt5dequeIS3_SaIS3_EEE3popEv.exit

11:                                               ; preds = %1
  tail call void @_ZdlPv(ptr noundef %8) #18
  %12 = getelementptr inbounds nuw i8, ptr %0, i64 88
  %13 = load ptr, ptr %12, align 8, !tbaa !110
  %14 = getelementptr inbounds i8, ptr %13, i64 -8
  store ptr %14, ptr %12, align 8, !tbaa !17
  %15 = load ptr, ptr %14, align 8, !tbaa !18
  store ptr %15, ptr %7, align 8, !tbaa !13
  %16 = getelementptr inbounds nuw i8, ptr %15, i64 512
  %17 = getelementptr inbounds nuw i8, ptr %0, i64 80
  store ptr %16, ptr %17, align 8, !tbaa !111
  %18 = getelementptr inbounds nuw i8, ptr %15, i64 508
  br label %_ZNSt5stackIN4YAML14EmitFromEvents5State5valueESt5dequeIS3_SaIS3_EEE3popEv.exit

_ZNSt5stackIN4YAML14EmitFromEvents5State5valueESt5dequeIS3_SaIS3_EEE3popEv.exit: ; preds = %9, %11
  %storemerge.i.i = phi ptr [ %10, %9 ], [ %18, %11 ]
  store ptr %storemerge.i.i, ptr %5, align 8, !tbaa !107
  ret void
}